target datalayout = "e-m:e-p270:32:32-p271:32:32-p272:64:64-i64:64-i128:128-f80:128-n8:16:32:64-S128"
target triple = "x86_64-pc-linux-gnu"

%struct.expert_field = type { i32, i32 }
%struct._packet_info = type { ptr, ptr, i32, i32, %struct.nstime_t, %struct.nstime_t, %struct.nstime_t, i8, ptr, ptr, ptr, ptr, %struct._address, %struct._address, %struct._address, %struct._address, %struct._address, %struct._address, i32, ptr, i8, [3 x i8], %struct.anon, i32, i32, i32, i32, ptr, i8, ptr, ptr, i16, i16, i32, i32, i16, i32, i32, ptr, ptr, ptr, i8, i8, i16, i16, i16, i32, i16, i16, ptr, ptr, ptr, ptr, ptr, i32, i32 }
%struct.nstime_t = type { i64, i32 }
%struct._address = type { i32, i32, ptr, ptr }
%struct.anon = type { i8, [3 x i8] }

@hf_uftp_status = internal global i32 0, align 4
@hf_uftp_status_func = internal global i32 0, align 4
@hf_uftp_status_hlen = internal global i32 0, align 4
@hf_uftp_status_file_id = internal global i32 0, align 4
@hf_uftp_status_section = internal global i32 0, align 4
@hf_uftp_status_reserved = internal global i32 0, align 4
@hf_uftp_status_naks = internal global i32 0, align 4
@ett_uftp_status = internal global i32 0, align 4
@ei_uftp_length_invalid = internal global %struct.expert_field zeroinitializer, align 4
@.str.416 = private unnamed_addr constant [19 x i8] c"Invalid length: %d\00", align 1
@.str.417 = private unnamed_addr constant [36 x i8] c"Invalid length, len = %d, hlen = %d\00", align 1
@.str.418 = private unnamed_addr constant [14 x i8] c"%d bytes (%d)\00", align 1
@.str.427 = private unnamed_addr constant [18 x i8] c":%04X  Section=%d\00", align 1

; Function Attrs: null_pointer_is_valid sspstrong uwtable
define internal void @dissect_uftp_status(ptr noundef %0, ptr noundef %1, ptr noundef %2) #0 {
  %4 = alloca ptr, align 8
  %5 = alloca ptr, align 8
  %6 = alloca ptr, align 8
  %7 = alloca ptr, align 8
  %8 = alloca ptr, align 8
  %9 = alloca i32, align 4
  %10 = alloca i32, align 4
  %11 = alloca i32, align 4
  %12 = alloca i16, align 2
  %13 = alloca i16, align 2
  %14 = alloca i8, align 1
  %15 = alloca ptr, align 8
  %16 = alloca i32, align 4
  %17 = alloca i32, align 4
  store ptr %0, ptr %4, align 8
  store ptr %1, ptr %5, align 8
  store ptr %2, ptr %6, align 8
  call void @llvm.lifetime.start.p0(i64 8, ptr %7) #6
  store ptr null, ptr %7, align 8
  call void @llvm.lifetime.start.p0(i64 8, ptr %8) #6
  store ptr null, ptr %8, align 8
  call void @llvm.lifetime.start.p0(i64 4, ptr %9) #6
  store i32 0, ptr %9, align 4
  call void @llvm.lifetime.start.p0(i64 4, ptr %10) #6
  call void @llvm.lifetime.start.p0(i64 4, ptr %11) #6
  call void @llvm.lifetime.start.p0(i64 2, ptr %12) #6
  call void @llvm.lifetime.start.p0(i64 2, ptr %13) #6
  call void @llvm.lifetime.start.p0(i64 1, ptr %14) #6
  call void @llvm.lifetime.start.p0(i64 8, ptr %15) #6
  %18 = load ptr, ptr %4, align 8
  %19 = call i32 @tvb_reported_length(ptr noundef %18)
  %20 = icmp ult i32 %19, 8
  br i1 %20, label %21, label %29

21:                                               ; preds = %3
  %22 = load ptr, ptr %6, align 8
  %23 = load ptr, ptr %5, align 8
  %24 = load ptr, ptr %4, align 8
  %25 = load i32, ptr %9, align 4
  %26 = load ptr, ptr %4, align 8
  %27 = call i32 @tvb_reported_length(ptr noundef %26)
  %28 = call ptr (ptr, ptr, ptr, ptr, i32, i32, ptr, ...) @proto_tree_add_expert_format(ptr noundef %22, ptr noundef %23, ptr noundef @ei_uftp_length_invalid, ptr noundef %24, i32 noundef %25, i32 noundef -1, ptr noundef @.str.416, i32 noundef %27)
  store i32 1, ptr %16, align 4
  br label %150

29:                                               ; preds = %3
  %30 = load ptr, ptr %4, align 8
  %31 = call zeroext i8 @tvb_get_uint8(ptr noundef %30, i32 noundef 1)
  %32 = zext i8 %31 to i32
  %33 = mul i32 %32, 4
  store i32 %33, ptr %10, align 4
  %34 = load ptr, ptr %4, align 8
  %35 = call i32 @tvb_reported_length(ptr noundef %34)
  %36 = load i32, ptr %10, align 4
  %37 = icmp slt i32 %35, %36
  br i1 %37, label %41, label %38

38:                                               ; preds = %29
  %39 = load i32, ptr %10, align 4
  %40 = icmp slt i32 %39, 8
  br i1 %40, label %41, label %50

41:                                               ; preds = %38, %29
  %42 = load ptr, ptr %6, align 8
  %43 = load ptr, ptr %5, align 8
  %44 = load ptr, ptr %4, align 8
  %45 = load i32, ptr %9, align 4
  %46 = load ptr, ptr %4, align 8
  %47 = call i32 @tvb_reported_length(ptr noundef %46)
  %48 = load i32, ptr %10, align 4
  %49 = call ptr (ptr, ptr, ptr, ptr, i32, i32, ptr, ...) @proto_tree_add_expert_format(ptr noundef %42, ptr noundef %43, ptr noundef @ei_uftp_length_invalid, ptr noundef %44, i32 noundef %45, i32 noundef -1, ptr noundef @.str.417, i32 noundef %47, i32 noundef %48)
  store i32 1, ptr %16, align 4
  br label %150

50:                                               ; preds = %38
  %51 = load ptr, ptr %4, align 8
  %52 = call zeroext i16 @tvb_get_ntohs(ptr noundef %51, i32 noundef 2)
  store i16 %52, ptr %12, align 2
  %53 = load ptr, ptr %4, align 8
  %54 = call zeroext i16 @tvb_get_ntohs(ptr noundef %53, i32 noundef 4)
  store i16 %54, ptr %13, align 2
  %55 = load ptr, ptr %5, align 8
  %56 = getelementptr inbounds nuw %struct._packet_info, ptr %55, i32 0, i32 1
  %57 = load ptr, ptr %56, align 8
  %58 = load i16, ptr %12, align 2
  %59 = zext i16 %58 to i32
  %60 = load i16, ptr %13, align 2
  %61 = zext i16 %60 to i32
  call void (ptr, i32, ptr, ...) @col_append_fstr(ptr noundef %57, i32 noundef 25, ptr noundef @.str.427, i32 noundef %59, i32 noundef %61)
  %62 = load ptr, ptr %6, align 8
  %63 = load i32, ptr @hf_uftp_status, align 4
  %64 = load ptr, ptr %4, align 8
  %65 = load i32, ptr %9, align 4
  %66 = call ptr @proto_tree_add_item(ptr noundef %62, i32 noundef %63, ptr noundef %64, i32 noundef %65, i32 noundef -1, i32 noundef 0)
  store ptr %66, ptr %7, align 8
  %67 = load ptr, ptr %7, align 8
  %68 = load i32, ptr @ett_uftp_status, align 4
  %69 = call ptr @proto_item_add_subtree(ptr noundef %67, i32 noundef %68)
  store ptr %69, ptr %8, align 8
  %70 = load ptr, ptr %8, align 8
  %71 = load i32, ptr @hf_uftp_status_func, align 4
  %72 = load ptr, ptr %4, align 8
  %73 = load i32, ptr %9, align 4
  %74 = call ptr @proto_tree_add_item(ptr noundef %70, i32 noundef %71, ptr noundef %72, i32 noundef %73, i32 noundef 1, i32 noundef 0)
  %75 = load i32, ptr %9, align 4
  %76 = add i32 %75, 1
  store i32 %76, ptr %9, align 4
  %77 = load ptr, ptr %8, align 8
  %78 = load i32, ptr @hf_uftp_status_hlen, align 4
  %79 = load ptr, ptr %4, align 8
  %80 = load i32, ptr %9, align 4
  %81 = load i32, ptr %10, align 4
  %82 = load i32, ptr %10, align 4
  %83 = load i32, ptr %10, align 4
  %84 = sdiv i32 %83, 4
  %85 = call ptr (ptr, i32, ptr, i32, i32, i32, ptr, ...) @proto_tree_add_uint_format_value(ptr noundef %77, i32 noundef %78, ptr noundef %79, i32 noundef %80, i32 noundef 1, i32 noundef %81, ptr noundef @.str.418, i32 noundef %82, i32 noundef %84)
  %86 = load i32, ptr %9, align 4
  %87 = add i32 %86, 1
  store i32 %87, ptr %9, align 4
  %88 = load ptr, ptr %8, align 8
  %89 = load i32, ptr @hf_uftp_status_file_id, align 4
  %90 = load ptr, ptr %4, align 8
  %91 = load i32, ptr %9, align 4
  %92 = call ptr @proto_tree_add_item(ptr noundef %88, i32 noundef %89, ptr noundef %90, i32 noundef %91, i32 noundef 2, i32 noundef 0)
  %93 = load i32, ptr %9, align 4
  %94 = add i32 %93, 2
  store i32 %94, ptr %9, align 4
  %95 = load ptr, ptr %8, align 8
  %96 = load i32, ptr @hf_uftp_status_section, align 4
  %97 = load ptr, ptr %4, align 8
  %98 = load i32, ptr %9, align 4
  %99 = call ptr @proto_tree_add_item(ptr noundef %95, i32 noundef %96, ptr noundef %97, i32 noundef %98, i32 noundef 2, i32 noundef 0)
  %100 = load i32, ptr %9, align 4
  %101 = add i32 %100, 2
  store i32 %101, ptr %9, align 4
  %102 = load ptr, ptr %8, align 8
  %103 = load i32, ptr @hf_uftp_status_reserved, align 4
  %104 = load ptr, ptr %4, align 8
  %105 = load i32, ptr %9, align 4
  %106 = call ptr @proto_tree_add_item(ptr noundef %102, i32 noundef %103, ptr noundef %104, i32 noundef %105, i32 noundef 2, i32 noundef 0)
  %107 = load i32, ptr %9, align 4
  %108 = add i32 %107, 2
  store i32 %108, ptr %9, align 4
  %109 = load i32, ptr %10, align 4
  %110 = sub i32 %109, 8
  store i32 %110, ptr %11, align 4
  br label %111

111:                                              ; preds = %142, %50
  %112 = load i32, ptr %11, align 4
  %113 = icmp sgt i32 %112, 0
  br i1 %113, label %114, label %143

114:                                              ; preds = %111
  call void @llvm.lifetime.start.p0(i64 4, ptr %17) #6
  store i32 0, ptr %17, align 4
  %115 = load ptr, ptr %4, align 8
  %116 = load i32, ptr %9, align 4
  %117 = load i32, ptr %11, align 4
  %118 = call ptr @tvb_new_subset_length(ptr noundef %115, i32 noundef %116, i32 noundef %117)
  store ptr %118, ptr %15, align 8
  %119 = load ptr, ptr %4, align 8
  %120 = load i32, ptr %9, align 4
  %121 = call zeroext i8 @tvb_get_uint8(ptr noundef %119, i32 noundef %120)
  store i8 %121, ptr %14, align 1
  %122 = load i8, ptr %14, align 1
  %123 = zext i8 %122 to i32
  switch i32 %123, label %129 [
    i32 3, label %124
  ]

124:                                              ; preds = %114
  %125 = load ptr, ptr %15, align 8
  %126 = load ptr, ptr %5, align 8
  %127 = load ptr, ptr %8, align 8
  %128 = call i32 @dissect_uftp_tfmccack(ptr noundef %125, ptr noundef %126, ptr noundef %127)
  store i32 %128, ptr %17, align 4
  br label %129

129:                                              ; preds = %114, %124
  %130 = load i32, ptr %17, align 4
  %131 = icmp ne i32 %130, 0
  br i1 %131, label %133, label %132

132:                                              ; preds = %129
  store i32 3, ptr %16, align 4
  br label %140

133:                                              ; preds = %129
  %134 = load i32, ptr %17, align 4
  %135 = load i32, ptr %11, align 4
  %136 = sub i32 %135, %134
  store i32 %136, ptr %11, align 4
  %137 = load i32, ptr %17, align 4
  %138 = load i32, ptr %9, align 4
  %139 = add i32 %138, %137
  store i32 %139, ptr %9, align 4
  store i32 0, ptr %16, align 4
  br label %140

140:                                              ; preds = %133, %132
  call void @llvm.lifetime.end.p0(i64 4, ptr %17) #6
  %141 = load i32, ptr %16, align 4
  switch i32 %141, label %153 [
    i32 0, label %142
    i32 3, label %143
  ]

142:                                              ; preds = %140
  br label %111, !llvm.loop !17

143:                                              ; preds = %140, %111
  %144 = load i32, ptr %10, align 4
  store i32 %144, ptr %9, align 4
  %145 = load ptr, ptr %8, align 8
  %146 = load i32, ptr @hf_uftp_status_naks, align 4
  %147 = load ptr, ptr %4, align 8
  %148 = load i32, ptr %9, align 4
  %149 = call ptr @proto_tree_add_item(ptr noundef %145, i32 noundef %146, ptr noundef %147, i32 noundef %148, i32 noundef -1, i32 noundef 0)
  store i32 0, ptr %16, align 4
  br label %150

150:                                              ; preds = %143, %41, %21
  call void @llvm.lifetime.end.p0(i64 8, ptr %15) #6
  call void @llvm.lifetime.end.p0(i64 1, ptr %14) #6
  call void @llvm.lifetime.end.p0(i64 2, ptr %13) #6
  call void @llvm.lifetime.end.p0(i64 2, ptr %12) #6
  call void @llvm.lifetime.end.p0(i64 4, ptr %11) #6
  call void @llvm.lifetime.end.p0(i64 4, ptr %10) #6
  call void @llvm.lifetime.end.p0(i64 4, ptr %9) #6
  call void @llvm.lifetime.end.p0(i64 8, ptr %8) #6
  call void @llvm.lifetime.end.p0(i64 8, ptr %7) #6
  %151 = load i32, ptr %16, align 4
  switch i32 %151, label %153 [
    i32 0, label %152
    i32 1, label %152
  ]

152:                                              ; preds = %150, %150
  ret void

153:                                              ; preds = %150, %140
  unreachable
}